(dp0
(S'Boitata'
p1
S'bra_dun02'
p2
tp3
(imodels.Mvp
Mvp
p4
(dp5
S'map'
p6
g2
sS'last_death'
p7
NsS'name'
p8
g1
sS'tempo_respawn'
p9
cdatetime
timedelta
p10
(I0
I7200
I0
tp11
Rp12
sbs(S'Deviling'
p13
S'pay_fild04'
p14
tp15
(imodels.Mvp
Mvp
p16
(dp17
g6
g14
sg7
Nsg8
g13
sg9
g10
(I0
I7200
I0
tp18
Rp19
sbs(S'Deviling'
p20
S'yuno_fild03'
p21
tp22
(imodels.Mvp
Mvp
p23
(dp24
g6
g21
sg7
Nsg8
g20
sg9
g10
(I0
I3600
I0
tp25
Rp26
sbs(S'Maya Purple'
p27
S'gld2_ald'
p28
tp29
(imodels.Mvp
Mvp
p30
(dp31
g6
g28
sg7
Nsg8
g27
sg9
g10
(I0
I1200
I0
tp32
Rp33
sbs(S'Gloom Under Night'
p34
S'ra_san05'
p35
tp36
(imodels.Mvp
Mvp
p37
(dp38
g6
g35
sg7
Nsg8
g34
sg9
g10
(I0
I18000
I0
tp39
Rp40
sbs(S'Ghostring'
p41
S'pay_fild04'
p42
tp43
(imodels.Mvp
Mvp
p44
(dp45
g6
g42
sg7
Nsg8
g41
sg9
g10
(I0
I3600
I0
tp46
Rp47
sbs(S'Lord of Death'
p48
S'niflheim'
p49
tp50
(imodels.Mvp
Mvp
p51
(dp52
g6
g49
sg7
Nsg8
g48
sg9
g10
(I0
I7980
I0
tp53
Rp54
sbs(S'Hardrock Mammoth'
p55
S'man_fild03'
p56
tp57
(imodels.Mvp
Mvp
p58
(dp59
g6
g56
sg7
Nsg8
g55
sg9
g10
(I0
I14400
I0
tp60
Rp61
sbs(S'Atroce'
p62
S'ra_fild03'
p63
tp64
(imodels.Mvp
Mvp
p65
(dp66
g6
g63
sg7
Nsg8
g62
sg9
g10
(I0
I10800
I0
tp67
Rp68
sbs(S'Eddga'
p69
S'gld_dun01_2'
p70
tp71
(imodels.Mvp
Mvp
p72
(dp73
g6
g70
sg7
Nsg8
g69
sg9
g10
(I0
I28800
I0
tp74
Rp75
sbs(S'Detale'
p76
S'abyss_03'
p77
tp78
(imodels.Mvp
Mvp
p79
(dp80
g6
g77
sg7
Nsg8
g76
sg9
g10
(I0
I10800
I0
tp81
Rp82
sbs(S'Eddga'
p83
S'pay_fild10'
p84
tp85
(imodels.Mvp
Mvp
p86
(dp87
g6
g84
sg7
Nsg8
g83
sg9
g10
(I0
I7200
I0
tp88
Rp89
sbs(S'Maya Purple'
p90
S'gld_dun02_2'
p91
tp92
(imodels.Mvp
Mvp
p93
(dp94
g6
g91
sg7
Nsg8
g90
sg9
g10
(I0
I1200
I0
tp95
Rp96
sbs(S'Leak'
p97
S'dew_dun01'
p98
tp99
(imodels.Mvp
Mvp
p100
(dp101
g6
g98
sg7
Nsg8
g97
sg9
g10
(I0
I7200
I0
tp102
Rp103
sbs(S'Maya'
p104
S'gld_dun02_2'
p105
tp106
(imodels.Mvp
Mvp
p107
(dp108
g6
g105
sg7
Nsg8
g104
sg9
g10
(I0
I28800
I0
tp109
Rp110
sbs(S'Beelzebub'
p111
S'abbey03'
p112
tp113
(imodels.Mvp
Mvp
p114
(dp115
g6
g112
sg7
Nsg8
g111
sg9
g10
(I0
I43200
I0
tp116
Rp117
sbs(S'Maya'
p118
S'anthell02'
p119
tp120
(imodels.Mvp
Mvp
p121
(dp122
g6
g119
sg7
Nsg8
g118
sg9
g10
(I0
I7200
I0
tp123
Rp124
sbs(S'Bio3 MVP'
p125
S'lhz_dun03'
p126
tp127
(imodels.Mvp
Mvp
p128
(dp129
g6
g126
sg7
Nsg8
g125
sg9
g10
(I0
I6000
I0
tp130
Rp131
sbs(S'Atroce'
p132
S've_fild01'
p133
tp134
(imodels.Mvp
Mvp
p135
(dp136
g6
g133
sg7
Nsg8
g132
sg9
g10
(I0
I10800
I0
tp137
Rp138
sbs(S'Bacsojin'
p139
S'lou_dun03'
p140
tp141
(imodels.Mvp
Mvp
p142
(dp143
g6
g140
sg7
Nsg8
g139
sg9
g10
(I0
I7020
I0
tp144
Rp145
sbs(S'Atroce'
p146
S'gld_dun03_2'
p147
tp148
(imodels.Mvp
Mvp
p149
(dp150
g6
g147
sg7
Nsg8
g146
sg9
g10
(I0
I28800
I0
tp151
Rp152
sbs(S'Wounded Morroc'
p153
S'moc_fild22'
p154
tp155
(imodels.Mvp
Mvp
p156
(dp157
g6
g154
sg7
Nsg8
g153
sg9
g10
(I0
I43200
I0
tp158
Rp159
sbs(S'Gopinich'
p160
S'mosk_dun03'
p161
tp162
(imodels.Mvp
Mvp
p163
(dp164
g6
g161
sg7
Nsg8
g160
sg9
g10
(I0
I7200
I0
tp165
Rp166
sbs(S'Amon Ra'
p167
S'moc_pryd06'
p168
tp169
(imodels.Mvp
Mvp
p170
(dp171
g6
g168
sg7
Nsg8
g167
sg9
g10
(I0
I3600
I0
tp172
Rp173
sbs(S'Queen Scaraba'
p174
S'dic_dun02'
p175
tp176
(imodels.Mvp
Mvp
p177
(dp178
g6
g175
sg7
Nsg8
g174
sg9
g10
(I0
I7200
I0
tp179
Rp180
sbs(S'Evil Snake Lord'
p181
S'gon_dun03'
p182
tp183
(imodels.Mvp
Mvp
p184
(dp185
g6
g182
sg7
Nsg8
g181
sg9
g10
(I0
I5640
I0
tp186
Rp187
sbs(S'Phreeoni'
p188
S'moc_fild17'
p189
tp190
(imodels.Mvp
Mvp
p191
(dp192
g6
g189
sg7
Nsg8
g188
sg9
g10
(I0
I7200
I0
tp193
Rp194
sbs(S'Ktullanux'
p195
S'ice_dun03'
p196
tp197
(imodels.Mvp
Mvp
p198
(dp199
g6
g196
sg7
Nsg8
g195
sg9
g10
(I0
I7200
I0
tp200
Rp201
sbs(S'Egnigem Cenia'
p202
S'lhz_dun02'
p203
tp204
(imodels.Mvp
Mvp
p205
(dp206
g6
g203
sg7
Nsg8
g202
sg9
g10
(I0
I7200
I0
tp207
Rp208
sbs(S'Angeling'
p209
S'pay_fild04'
p210
tp211
(imodels.Mvp
Mvp
p212
(dp213
g6
g210
sg7
Nsg8
g209
sg9
g10
(I0
I3600
I0
tp214
Rp215
sbs(S'Ghostring'
p216
S'gld_dun04'
p217
tp218
(imodels.Mvp
Mvp
p219
(dp220
g6
g217
sg7
Nsg8
g216
sg9
g10
(I0
I14400
I0
tp221
Rp222
sbs(S'Dracula'
p223
S'gef_dun01'
p224
tp225
(imodels.Mvp
Mvp
p226
(dp227
g6
g224
sg7
Nsg8
g223
sg9
g10
(I0
I3600
I0
tp228
Rp229
sbs(S'Ghostring'
p230
S'prt_maze03'
p231
tp232
(imodels.Mvp
Mvp
p233
(dp234
g6
g231
sg7
Nsg8
g230
sg9
g10
(I0
I6780
I0
tp235
Rp236
sbs(S'Baphomet'
p237
S'prt_maze03'
p238
tp239
(imodels.Mvp
Mvp
p240
(dp241
g6
g238
sg7
Nsg8
g237
sg9
g10
(I0
I7200
I0
tp242
Rp243
sbs(S'Fallen Bishop Hibram'
p244
S'abbey02'
p245
tp246
(imodels.Mvp
Mvp
p247
(dp248
g6
g245
sg7
Nsg8
g244
sg9
g10
(I0
I7200
I0
tp249
Rp250
sbs(S'Stormy Knight'
p251
S'xmas_dun02'
p252
tp253
(imodels.Mvp
Mvp
p254
(dp255
g6
g252
sg7
Nsg8
g251
sg9
g10
(I0
I3600
I0
tp256
Rp257
sbs(S'RSX-0806'
p258
S'ein_dun02'
p259
tp260
(imodels.Mvp
Mvp
p261
(dp262
g6
g259
sg7
Nsg8
g258
sg9
g10
(I0
I7500
I0
tp263
Rp264
sbs(S'Atroce'
p265
S've_fild02'
p266
tp267
(imodels.Mvp
Mvp
p268
(dp269
g6
g266
sg7
Nsg8
g265
sg9
g10
(I0
I21600
I0
tp270
Rp271
sbs(S'Atroce'
p272
S'ra_fild04'
p273
tp274
(imodels.Mvp
Mvp
p275
(dp276
g6
g273
sg7
Nsg8
g272
sg9
g10
(I0
I18000
I0
tp277
Rp278
sbs(S'Orc Lord'
p279
S'gef_fild10'
p280
tp281
(imodels.Mvp
Mvp
p282
(dp283
g6
g280
sg7
Nsg8
g279
sg9
g10
(I0
I7200
I0
tp284
Rp285
sbs(S'Thanatos'
p286
S'thana_boss'
p287
tp288
(imodels.Mvp
Mvp
p289
(dp290
g6
g287
sg7
Nsg8
g286
sg9
g10
(I0
I7200
I0
tp291
Rp292
sbs(S'Garm'
p293
S'xmas_fild01'
p294
tp295
(imodels.Mvp
Mvp
p296
(dp297
g6
g294
sg7
Nsg8
g293
sg9
g10
(I0
I7200
I0
tp298
Rp299
sbs(S'Tao Gunka'
p300
S'beach_dun'
p301
tp302
(imodels.Mvp
Mvp
p303
(dp304
g6
g301
sg7
Nsg8
g300
sg9
g10
(I0
I18000
I0
tp305
Rp306
sbs(S'Pharaoh'
p307
S'in_sphinx5'
p308
tp309
(imodels.Mvp
Mvp
p310
(dp311
g6
g308
sg7
Nsg8
g307
sg9
g10
(I0
I3600
I0
tp312
Rp313
sbs(S'Moonlight Flower'
p314
S'gld_dun01'
p315
tp316
(imodels.Mvp
Mvp
p317
(dp318
g6
g315
sg7
Nsg8
g314
sg9
g10
(I0
I28800
I0
tp319
Rp320
sbs(S'Angeling'
p321
S'yuno_fild03'
p322
tp323
(imodels.Mvp
Mvp
p324
(dp325
g6
g322
sg7
Nsg8
g321
sg9
g10
(I0
I3600
I0
tp326
Rp327
sbs(S'Doppelganger'
p328
S'gld_dun04'
p329
tp330
(imodels.Mvp
Mvp
p331
(dp332
g6
g329
sg7
Nsg8
g328
sg9
g10
(I0
I28800
I0
tp333
Rp334
sbs(S'Kraken'
p335
S'iz_dun05'
p336
tp337
(imodels.Mvp
Mvp
p338
(dp339
g6
g336
sg7
Nsg8
g335
sg9
g10
(I0
I7200
I0
tp340
Rp341
sbs(S'Doppelganger'
p342
S'gef_dun02'
p343
tp344
(imodels.Mvp
Mvp
p345
(dp346
g6
g343
sg7
Nsg8
g342
sg9
g10
(I0
I7200
I0
tp347
Rp348
sbs(S'Vesper'
p349
S'jupe_core'
p350
tp351
(imodels.Mvp
Mvp
p352
(dp353
g6
g350
sg7
Nsg8
g349
sg9
g10
(I0
I7200
I0
tp354
Rp355
sbs(S'Ifrit'
p356
S'thor_v03'
p357
tp358
(imodels.Mvp
Mvp
p359
(dp360
g6
g357
sg7
Nsg8
g356
sg9
g10
(I0
I39600
I0
tp361
Rp362
sbs(S'Moonlight Flower'
p363
S'pay_dun04'
p364
tp365
(imodels.Mvp
Mvp
p366
(dp367
g6
g364
sg7
Nsg8
g363
sg9
g10
(I0
I3600
I0
tp368
Rp369
sbs(S'Nightmare Amon Ra'
p370
S'moc_prydn2'
p371
tp372
(imodels.Mvp
Mvp
p373
(dp374
g6
g371
sg7
Nsg8
g370
sg9
g10
(I0
I3600
I0
tp375
Rp376
sbs(S'Baphomet'
p377
S'gld_dun03'
p378
tp379
(imodels.Mvp
Mvp
p380
(dp381
g6
g378
sg7
Nsg8
g377
sg9
g10
(I0
I28800
I0
tp382
Rp383
sbs(S'Osiris'
p384
S'moc_pryd04'
p385
tp386
(imodels.Mvp
Mvp
p387
(dp388
g6
g385
sg7
Nsg8
g384
sg9
g10
(I0
I3600
I0
tp389
Rp390
sbs(S'Dark Lord'
p391
S'gld_dun04_2'
p392
tp393
(imodels.Mvp
Mvp
p394
(dp395
g6
g392
sg7
Nsg8
g391
sg9
g10
(I0
I28800
I0
tp396
Rp397
sbs(S'Golden Thief Bug'
p398
S'prt_sewb4'
p399
tp400
(imodels.Mvp
Mvp
p401
(dp402
g6
g399
sg7
Nsg8
g398
sg9
g10
(I0
I3600
I0
tp403
Rp404
sbs(S'Angeling'
p405
S'xmas_dun01'
p406
tp407
(imodels.Mvp
Mvp
p408
(dp409
g6
g406
sg7
Nsg8
g405
sg9
g10
(I0
I3600
I0
tp410
Rp411
sbs(S'Mistress'
p412
S'gld_dun02'
p413
tp414
(imodels.Mvp
Mvp
p415
(dp416
g6
g413
sg7
Nsg8
g412
sg9
g10
(I0
I28800
I0
tp417
Rp418
sbs(S'Bio4 MVP'
p419
S'lhz_dun04'
p420
tp421
(imodels.Mvp
Mvp
p422
(dp423
g6
g420
sg7
Nsg8
g419
sg9
g10
(I0
I6000
I0
tp424
Rp425
sbs(S'Drake'
p426
S'treasure02'
p427
tp428
(imodels.Mvp
Mvp
p429
(dp430
g6
g427
sg7
Nsg8
g426
sg9
g10
(I0
I7200
I0
tp431
Rp432
sbs(S'Valkyrie Randgris'
p433
S'odin_tem03'
p434
tp435
(imodels.Mvp
Mvp
p436
(dp437
g6
g434
sg7
Nsg8
g433
sg9
g10
(I0
I28800
I0
tp438
Rp439
sbs(S'Kiel D-01'
p440
S'kh_dun02'
p441
tp442
(imodels.Mvp
Mvp
p443
(dp444
g6
g441
sg7
Nsg8
g440
sg9
g10
(I0
I7200
I0
tp445
Rp446
sbs(S'Archangeling'
p447
S'yuno_fild04'
p448
tp449
(imodels.Mvp
Mvp
p450
(dp451
g6
g448
sg7
Nsg8
g447
sg9
g10
(I0
I3600
I0
tp452
Rp453
sbs(S'Incantation Samurai'
p454
S'ama_dun03'
p455
tp456
(imodels.Mvp
Mvp
p457
(dp458
g6
g455
sg7
Nsg8
g454
sg9
g10
(I0
I5460
I0
tp459
Rp460
sbs(S'Turtle General'
p461
S'tur_dun04'
p462
tp463
(imodels.Mvp
Mvp
p464
(dp465
g6
g462
sg7
Nsg8
g461
sg9
g10
(I0
I3600
I0
tp466
Rp467
sbs(S'Lady Tanee'
p468
S'ayo_dun02'
p469
tp470
(imodels.Mvp
Mvp
p471
(dp472
g6
g469
sg7
Nsg8
g468
sg9
g10
(I0
I25200
I0
tp473
Rp474
sbs(S'Dark Lord'
p475
S'gl_chyard'
p476
tp477
(imodels.Mvp
Mvp
p478
(dp479
g6
g476
sg7
Nsg8
g475
sg9
g10
(I0
I3600
I0
tp480
Rp481
sbs(S'Ghostring'
p482
S'treasure02'
p483
tp484
(imodels.Mvp
Mvp
p485
(dp486
g6
g483
sg7
Nsg8
g482
sg9
g10
(I0
I1980
I0
tp487
Rp488
sbs(S'Tendrillion'
p489
S'spl_fild03'
p490
tp491
(imodels.Mvp
Mvp
p492
(dp493
g6
g490
sg7
Nsg8
g489
sg9
g10
(I0
I3600
I0
tp494
Rp495
sbs(S'Orc Hero'
p496
S'gef_fild03'
p497
tp498
(imodels.Mvp
Mvp
p499
(dp500
g6
g497
sg7
Nsg8
g496
sg9
g10
(I0
I3600
I0
tp501
Rp502
sbs(S'Mistress'
p503
S'mjolnir_04'
p504
tp505
(imodels.Mvp
Mvp
p506
(dp507
g6
g504
sg7
Nsg8
g503
sg9
g10
(I0
I7200
I0
tp508
Rp509
sbs.